; Function Attrs: mustprogress nofree norecurse nosync nounwind willreturn memory(read, inaccessiblemem: none) uwtable
define noundef zeroext i1 @_ZNK32pxrInternal_v0_24__pxrReserved__19HdDataSourceLocator10IntersectsERKS0_(ptr nocapture noundef nonnull readonly align 8 dereferenceable(56) %0, ptr nocapture noundef nonnull readonly align 8 dereferenceable(56) %1) local_unnamed_addr #7 align 2 personality ptr @__gxx_personality_v0 {
  %3 = getelementptr inbounds nuw i8, ptr %1, i64 48
  %4 = load i32, ptr %3, align 8
  %5 = getelementptr inbounds nuw i8, ptr %0, i64 48
  %6 = load i32, ptr %5, align 8
  %7 = tail call i32 @llvm.umin.i32(i32 %6, i32 %4)
  %.sroa.speculated = zext i32 %7 to i64
  %8 = icmp eq i32 %7, 0
  br i1 %8, label %._crit_edge, label %.lr.ph

.lr.ph:                                           ; preds = %2
  %9 = getelementptr inbounds nuw i8, ptr %1, i64 52
  %10 = load i32, ptr %9, align 4
  %11 = icmp ult i32 %10, 7
  %12 = load ptr, ptr %1, align 8
  %spec.select.i.i.i = select i1 %11, ptr %1, ptr %12
  %13 = getelementptr inbounds nuw i8, ptr %0, i64 52
  %14 = load i32, ptr %13, align 4
  %15 = icmp ult i32 %14, 7
  %16 = load ptr, ptr %0, align 8
  %spec.select.i.i.i9 = select i1 %15, ptr %0, ptr %16
  br label %17

17:                                               ; preds = %17, %.lr.ph
  %.013 = phi i64 [ 0, %.lr.ph ], [ %28, %17 ]
  %18 = getelementptr inbounds %"class.pxrInternal_v0_24__pxrReserved__::TfToken", ptr %spec.select.i.i.i, i64 %.013
  %19 = getelementptr inbounds %"class.pxrInternal_v0_24__pxrReserved__::TfToken", ptr %spec.select.i.i.i9, i64 %.013
  %20 = load ptr, ptr %18, align 8
  %21 = ptrtoint ptr %20 to i64
  %22 = and i64 %21, -8
  %23 = inttoptr i64 %22 to ptr
  %24 = load ptr, ptr %19, align 8
  %25 = ptrtoint ptr %24 to i64
  %26 = and i64 %25, -8
  %27 = inttoptr i64 %26 to ptr
  %.not = icmp eq ptr %23, %27
  %28 = add nuw nsw i64 %.013, 1
  %exitcond.not = icmp ne i64 %28, %.sroa.speculated
  %or.cond.not = select i1 %.not, i1 %exitcond.not, i1 false
  br i1 %or.cond.not, label %17, label %._crit_edge, !llvm.loop !14

._crit_edge:                                      ; preds = %17, %2
  %.lcssa = phi i1 [ true, %2 ], [ %.not, %17 ]
  ret i1 %.lcssa
}